target datalayout = "e-m:e-p270:32:32-p271:32:32-p272:64:64-i64:64-i128:128-f80:128-n8:16:32:64-S128"
target triple = "x86_64-pc-linux-gnu"

; Function Attrs: mustprogress uwtable
define noundef ptr @_ZN6google8protobuf8internal26DuplicateIfNonNullInternalEPNS0_11MessageLiteE(ptr noundef %0) #5 {
  %2 = alloca ptr, align 8
  %3 = alloca ptr, align 8
  %4 = alloca ptr, align 8
  store ptr %0, ptr %3, align 8, !tbaa !15
  %5 = load ptr, ptr %3, align 8, !tbaa !15
  %6 = icmp ne ptr %5, null
  br i1 %6, label %7, label %19

7:                                                ; preds = %1
  call void @llvm.lifetime.start.p0(i64 8, ptr %4) #3
  %8 = load ptr, ptr %3, align 8, !tbaa !15
  %9 = load ptr, ptr %8, align 8, !tbaa !7
  %10 = getelementptr inbounds ptr, ptr %9, i64 3
  %11 = load ptr, ptr %10, align 8
  %12 = call noundef ptr %11(ptr noundef nonnull align 8 dereferenceable(16) %8)
  store ptr %12, ptr %4, align 8, !tbaa !15
  %13 = load ptr, ptr %4, align 8, !tbaa !15
  %14 = load ptr, ptr %3, align 8, !tbaa !15
  %15 = load ptr, ptr %13, align 8, !tbaa !7
  %16 = getelementptr inbounds ptr, ptr %15, i64 8
  %17 = load ptr, ptr %16, align 8
  call void %17(ptr noundef nonnull align 8 dereferenceable(16) %13, ptr noundef nonnull align 8 dereferenceable(16) %14)
  %18 = load ptr, ptr %4, align 8, !tbaa !15
  store ptr %18, ptr %2, align 8
  call void @llvm.lifetime.end.p0(i64 8, ptr %4) #3
  br label %20

19:                                               ; preds = %1
  store ptr null, ptr %2, align 8
  br label %20

20:                                               ; preds = %19, %7
  %21 = load ptr, ptr %2, align 8
  ret ptr %21
}